target datalayout = "e-m:e-p270:32:32-p271:32:32-p272:64:64-i64:64-i128:128-f80:128-n8:16:32:64-S128"
target triple = "x86_64-pc-linux-gnu"

%struct.timeval = type { i64, i64 }
%struct.timespec = type { i64, i64 }

; Function Attrs: nounwind uwtable
define internal i32 @evthread_posix_cond_wait(ptr noundef %0, ptr noundef %1, ptr noundef %2) #0 {
  %4 = alloca i32, align 4
  %5 = alloca ptr, align 8
  %6 = alloca ptr, align 8
  %7 = alloca ptr, align 8
  %8 = alloca i32, align 4
  %9 = alloca ptr, align 8
  %10 = alloca ptr, align 8
  %11 = alloca %struct.timeval, align 8
  %12 = alloca %struct.timeval, align 8
  %13 = alloca %struct.timespec, align 8
  %14 = alloca i32, align 4
  store ptr %0, ptr %5, align 8
  store ptr %1, ptr %6, align 8
  store ptr %2, ptr %7, align 8
  call void @llvm.lifetime.start.p0(i64 4, ptr %8) #6
  call void @llvm.lifetime.start.p0(i64 8, ptr %9) #6
  %15 = load ptr, ptr %5, align 8
  store ptr %15, ptr %9, align 8
  call void @llvm.lifetime.start.p0(i64 8, ptr %10) #6
  %16 = load ptr, ptr %6, align 8
  store ptr %16, ptr %10, align 8
  %17 = load ptr, ptr %7, align 8
  %18 = icmp ne ptr %17, null
  br i1 %18, label %19, label %68

19:                                               ; preds = %3
  call void @llvm.lifetime.start.p0(i64 16, ptr %11) #6
  call void @llvm.lifetime.start.p0(i64 16, ptr %12) #6
  call void @llvm.lifetime.start.p0(i64 16, ptr %13) #6
  %20 = call i32 @gettimeofday(ptr noundef %11, ptr noundef null) #6
  br label %21

21:                                               ; preds = %19
  %22 = getelementptr inbounds nuw %struct.timeval, ptr %11, i32 0, i32 0
  %23 = load i64, ptr %22, align 8
  %24 = load ptr, ptr %7, align 8
  %25 = getelementptr inbounds nuw %struct.timeval, ptr %24, i32 0, i32 0
  %26 = load i64, ptr %25, align 8
  %27 = add nsw i64 %23, %26
  %28 = getelementptr inbounds nuw %struct.timeval, ptr %12, i32 0, i32 0
  store i64 %27, ptr %28, align 8
  %29 = getelementptr inbounds nuw %struct.timeval, ptr %11, i32 0, i32 1
  %30 = load i64, ptr %29, align 8
  %31 = load ptr, ptr %7, align 8
  %32 = getelementptr inbounds nuw %struct.timeval, ptr %31, i32 0, i32 1
  %33 = load i64, ptr %32, align 8
  %34 = add nsw i64 %30, %33
  %35 = getelementptr inbounds nuw %struct.timeval, ptr %12, i32 0, i32 1
  store i64 %34, ptr %35, align 8
  %36 = getelementptr inbounds nuw %struct.timeval, ptr %12, i32 0, i32 1
  %37 = load i64, ptr %36, align 8
  %38 = icmp sge i64 %37, 1000000
  br i1 %38, label %39, label %46

39:                                               ; preds = %21
  %40 = getelementptr inbounds nuw %struct.timeval, ptr %12, i32 0, i32 0
  %41 = load i64, ptr %40, align 8
  %42 = add nsw i64 %41, 1
  store i64 %42, ptr %40, align 8
  %43 = getelementptr inbounds nuw %struct.timeval, ptr %12, i32 0, i32 1
  %44 = load i64, ptr %43, align 8
  %45 = sub nsw i64 %44, 1000000
  store i64 %45, ptr %43, align 8
  br label %46

46:                                               ; preds = %39, %21
  br label %47

47:                                               ; preds = %46
  br label %48

48:                                               ; preds = %47
  %49 = getelementptr inbounds nuw %struct.timeval, ptr %12, i32 0, i32 0
  %50 = load i64, ptr %49, align 8
  %51 = getelementptr inbounds nuw %struct.timespec, ptr %13, i32 0, i32 0
  store i64 %50, ptr %51, align 8
  %52 = getelementptr inbounds nuw %struct.timeval, ptr %12, i32 0, i32 1
  %53 = load i64, ptr %52, align 8
  %54 = mul nsw i64 %53, 1000
  %55 = getelementptr inbounds nuw %struct.timespec, ptr %13, i32 0, i32 1
  store i64 %54, ptr %55, align 8
  %56 = load ptr, ptr %9, align 8
  %57 = load ptr, ptr %10, align 8
  %58 = call i32 @pthread_cond_timedwait(ptr noundef %56, ptr noundef %57, ptr noundef %13)
  store i32 %58, ptr %8, align 4
  %59 = load i32, ptr %8, align 4
  %60 = icmp eq i32 %59, 110
  br i1 %60, label %61, label %62

61:                                               ; preds = %48
  store i32 1, ptr %4, align 4
  store i32 1, ptr %14, align 4
  br label %67

62:                                               ; preds = %48
  %63 = load i32, ptr %8, align 4
  %64 = icmp ne i32 %63, 0
  br i1 %64, label %65, label %66

65:                                               ; preds = %62
  store i32 -1, ptr %4, align 4
  store i32 1, ptr %14, align 4
  br label %67

66:                                               ; preds = %62
  store i32 0, ptr %4, align 4
  store i32 1, ptr %14, align 4
  br label %67

67:                                               ; preds = %66, %65, %61
  call void @llvm.lifetime.end.p0(i64 16, ptr %13) #6
  call void @llvm.lifetime.end.p0(i64 16, ptr %12) #6
  call void @llvm.lifetime.end.p0(i64 16, ptr %11) #6
  br label %75

68:                                               ; preds = %3
  %69 = load ptr, ptr %9, align 8
  %70 = load ptr, ptr %10, align 8
  %71 = call i32 @pthread_cond_wait(ptr noundef %69, ptr noundef %70)
  store i32 %71, ptr %8, align 4
  %72 = load i32, ptr %8, align 4
  %73 = icmp ne i32 %72, 0
  %74 = select i1 %73, i32 -1, i32 0
  store i32 %74, ptr %4, align 4
  store i32 1, ptr %14, align 4
  br label %75

75:                                               ; preds = %68, %67
  call void @llvm.lifetime.end.p0(i64 8, ptr %10) #6
  call void @llvm.lifetime.end.p0(i64 8, ptr %9) #6
  call void @llvm.lifetime.end.p0(i64 4, ptr %8) #6
  %76 = load i32, ptr %4, align 4
  ret i32 %76
}