; Function Attrs: nounwind uwtable
define internal range(i32 -1, 2) i32 @evthread_posix_cond_wait(ptr noundef %0, ptr noundef %1, ptr noundef readonly captures(address_is_null) %2) #0 {
  %4 = alloca %struct.timeval, align 8
  %5 = alloca %struct.timespec, align 8
  %.not = icmp eq ptr %2, null
  br i1 %.not, label %22, label %6

6:                                                ; preds = %3
  call void @llvm.lifetime.start.p0(i64 16, ptr nonnull %4) #8
  call void @llvm.lifetime.start.p0(i64 16, ptr nonnull %5) #8
  %7 = call i32 @gettimeofday(ptr noundef nonnull %4, ptr noundef null) #8
  %8 = load i64, ptr %4, align 8
  %9 = load i64, ptr %2, align 8
  %10 = add nsw i64 %9, %8
  %11 = getelementptr inbounds nuw i8, ptr %4, i64 8
  %12 = load i64, ptr %11, align 8
  %13 = getelementptr inbounds nuw i8, ptr %2, i64 8
  %14 = load i64, ptr %13, align 8
  %15 = add nsw i64 %14, %12
  %16 = icmp sgt i64 %15, 999999
  %17 = add nsw i64 %15, -1000000
  %.sroa.6.0 = select i1 %16, i64 %17, i64 %15
  %18 = zext i1 %16 to i64
  %.sroa.0.0 = add nsw i64 %10, %18
  store i64 %.sroa.0.0, ptr %5, align 8
  %19 = mul nsw i64 %.sroa.6.0, 1000
  %20 = getelementptr inbounds nuw i8, ptr %5, i64 8
  store i64 %19, ptr %20, align 8
  %21 = call i32 @pthread_cond_timedwait(ptr noundef %0, ptr noundef %1, ptr noundef nonnull %5) #8
  %switch.selectcmp = icmp ne i32 %21, 0
  %switch.select = sext i1 %switch.selectcmp to i32
  %switch.selectcmp21 = icmp eq i32 %21, 110
  %switch.select22 = select i1 %switch.selectcmp21, i32 1, i32 %switch.select
  call void @llvm.lifetime.end.p0(i64 16, ptr nonnull %5) #8
  call void @llvm.lifetime.end.p0(i64 16, ptr nonnull %4) #8
  br label %25

22:                                               ; preds = %3
  %23 = tail call i32 @pthread_cond_wait(ptr noundef %0, ptr noundef %1) #8
  %.not19 = icmp ne i32 %23, 0
  %24 = sext i1 %.not19 to i32
  br label %25

25:                                               ; preds = %22, %6
  %.1 = phi i32 [ %switch.select22, %6 ], [ %24, %22 ]
  ret i32 %.1
}